(dp0
I0
(I-33
I10
tp1
sI1
(I-33
I12
tp2
sI2
(I-33
I13
tp3
sI3
(I-32
I15
tp4
sI4
(I-32
I15
tp5
sI5
(I-32
I16
tp6
sI6
(I-32
I17
tp7
sI7
(I-32
I19
tp8
sI8
(I-32
I20
tp9
sI9
(I-34
I21
tp10
sI10
(I-34
I22
tp11
sI11
(I-32
I24
tp12
sI12
(I-33
I26
tp13
sI13
(I-34
I26
tp14
sI14
(I-35
I27
tp15
sI15
(I-36
I28
tp16
sI16
(I-36
I28
tp17
sI17
(I-36
I29
tp18
sI18
(I-36
I29
tp19
sI19
(I-36
I29
tp20
sI20
(I-36
I30
tp21
sI21
(I-36
I31
tp22
sI22
(I-36
I31
tp23
sI23
(I-36
I32
tp24
sI24
(I-37
I32
tp25
sI25
(I-39
I33
tp26
sI26
(I-39
I35
tp27
sI27
(I-35
I34
tp28
sI28
(I-36
I36
tp29
sI29
(I-36
I36
tp30
sI30
(I-36
I35
tp31
sI31
(I-34
I35
tp32
sI32
(I-34
I34
tp33
sI33
(I-34
I34
tp34
sI34
(I-34
I34
tp35
sI35
(I-31
I36
tp36
sI36
(I-33
I37
tp37
sI37
(I-33
I36
tp38
sI38
(I-33
I36
tp39
sI39
(I-32
I36
tp40
sI40
(I-31
I36
tp41
sI41
(I-30
I33
tp42
sI42
(I-29
I33
tp43
sI43
(I-29
I33
tp44
sI44
(I-29
I33
tp45
sI45
(I-29
I33
tp46
sI46
(I-29
I32
tp47
sI47
(I-29
I32
tp48
sI48
(I-29
I32
tp49
sI49
(I-27
I30
tp50
sI50
(I-27
I30
tp51
sI51
(I-27
I30
tp52
sI52
(I-27
I30
tp53
sI53
(I-25
I25
tp54
sI54
(I-25
I24
tp55
sI55
(I-25
I24
tp56
sI56
(I-25
I24
tp57
sI57
(I-25
I24
tp58
sI58
(I-22
I23
tp59
sI59
(I-21
I23
tp60
sI60
(I-20
I23
tp61
sI61
(I-19
I23
tp62
sI62
(I-18
I22
tp63
sI63
(I-18
I21
tp64
sI64
(I-18
I19
tp65
sI65
(I-18
I18
tp66
sI66
(I-18
I17
tp67
sI67
(I-16
I14
tp68
sI68
(I-6
I14
tp69
sI69
(I-4
I13
tp70
sI70
(I1
I12
tp71
sI-1
(I-32
I9
tp72
sI-16
(I-13
I-9
tp73
sI-15
(I-13
I-9
tp74
sI-14
(I-13
I-6
tp75
sI-13
(I-20
I-6
tp76
sI-12
(I-22
I-4
tp77
sI-11
(I-22
I-2
tp78
sI-10
(I-24
I6
tp79
sI-9
(I-29
I6
tp80
sI-8
(I-29
I5
tp81
sI-7
(I-29
I2
tp82
sI-6
(I-29
I2
tp83
sI-5
(I-29
I4
tp84
sI-4
(I-29
I5
tp85
sI-3
(I-30
I6
tp86
sI-2
(I-31
I8
tp87
s.