(dp0
I1
NsI2
NsI3
NsI4
NsI5
F4.59571099281311
sI6
F5.197293996810913
sI7
NsI8
F4.579142093658447
sI9
F5.264281988143921
sI10
F5.331162929534912
sI11
NsI12
F4.662657976150513
sI13
F4.5456578731536865
sI14
F4.980140209197998
sI15
NsI16
NsI17
NsI18
NsI19
F4.3617730140686035
sI20
F5.531973838806152
sI21
F4.495565891265869
sI22
NsI23
F5.0802600383758545
sI24
NsI25
F5.79911208152771
sI26
NsI27
F5.114037036895752
sI28
NsI29
NsI30
Ns.