(dp0
I0
(I-33
I36
tp1
sI1
(I-33
I37
tp2
sI2
(I-33
I37
tp3
sI3
(I-34
I37
tp4
sI4
(I-35
I38
tp5
sI5
(I-35
I39
tp6
sI6
(I-35
I41
tp7
sI7
(I-37
I41
tp8
sI8
(I-37
I41
tp9
sI9
(I-37
I41
tp10
sI10
(I-37
I41
tp11
sI11
(I-36
I41
tp12
sI12
(I-36
I41
tp13
sI13
(I-36
I41
tp14
sI14
(I-36
I41
tp15
sI15
(I-36
I41
tp16
sI16
(I-37
I41
tp17
sI17
(I-37
I41
tp18
sI18
(I-37
I43
tp19
sI19
(I-38
I43
tp20
sI20
(I-38
I49
tp21
sI21
(I-38
I49
tp22
sI22
(I-38
I50
tp23
sI23
(I-38
I50
tp24
sI24
(I-38
I50
tp25
sI25
(I-38
I52
tp26
sI26
(I-38
I54
tp27
sI27
(I-38
I55
tp28
sI28
(I-38
I55
tp29
sI29
(I-38
I55
tp30
sI30
(I-39
I55
tp31
sI31
(I-39
I55
tp32
sI32
(I-39
I56
tp33
sI33
(I-35
I54
tp34
sI34
(I-35
I54
tp35
sI35
(I-35
I54
tp36
sI36
(I-34
I53
tp37
sI37
(I-34
I53
tp38
sI38
(I-33
I53
tp39
sI39
(I-33
I52
tp40
sI40
(I-33
I52
tp41
sI41
(I-33
I52
tp42
sI42
(I-33
I51
tp43
sI43
(I-33
I50
tp44
sI44
(I-33
I49
tp45
sI45
(I-33
I48
tp46
sI46
(I-32
I48
tp47
sI47
(I-32
I48
tp48
sI48
(I-32
I48
tp49
sI49
(I-32
I48
tp50
sI50
(I-32
I48
tp51
sI51
(I-32
I48
tp52
sI52
(I-32
I48
tp53
sI53
(I-31
I48
tp54
sI54
(I-31
I48
tp55
sI55
(I-31
I48
tp56
sI56
(I-28
I48
tp57
sI57
(I-28
I48
tp58
sI58
(I-28
I48
tp59
sI59
(I-28
I48
tp60
sI60
(I-28
I48
tp61
sI61
(I-28
I48
tp62
sI62
(I-28
I48
tp63
sI63
(I-29
I48
tp64
sI64
(I-29
I48
tp65
sI65
(I-28
I48
tp66
sI66
(I-27
I44
tp67
sI67
(I-26
I44
tp68
sI68
(I-25
I43
tp69
sI69
(I-24
I42
tp70
sI70
(I-23
I41
tp71
sI71
(I-23
I40
tp72
sI72
(I-23
I39
tp73
sI73
(I-21
I39
tp74
sI74
(I-20
I39
tp75
sI75
(I-19
I38
tp76
sI76
(I-18
I37
tp77
sI77
(I-17
I36
tp78
sI78
(I-16
I35
tp79
sI79
(I-15
I34
tp80
sI80
(I-14
I33
tp81
sI81
(I-13
I32
tp82
sI82
(I-12
I31
tp83
sI83
(I-10
I30
tp84
sI84
(I-9
I30
tp85
sI85
(I-8
I30
tp86
sI86
(I-7
I27
tp87
sI87
(I-5
I26
tp88
sI88
(I-4
I25
tp89
sI89
(I-3
I25
tp90
sI90
(I-2
I23
tp91
sI91
(I5
I22
tp92
sI92
(I7
I21
tp93
sI-2
(I-33
I35
tp94
sI-28
(I-15
I-11
tp95
sI-27
(I-15
I4
tp96
sI-26
(I-21
I4
tp97
sI-25
(I-22
I6
tp98
sI-24
(I-23
I8
tp99
sI-23
(I-24
I9
tp100
sI-22
(I-24
I10
tp101
sI-21
(I-25
I11
tp102
sI-20
(I-26
I12
tp103
sI-19
(I-26
I13
tp104
sI-18
(I-27
I14
tp105
sI-17
(I-27
I15
tp106
sI-16
(I-27
I16
tp107
sI-15
(I-27
I17
tp108
sI-14
(I-29
I18
tp109
sI-13
(I-30
I19
tp110
sI-12
(I-30
I21
tp111
sI-11
(I-31
I22
tp112
sI-10
(I-31
I23
tp113
sI-9
(I-31
I24
tp114
sI-8
(I-31
I32
tp115
sI-7
(I-31
I32
tp116
sI-6
(I-31
I33
tp117
sI-5
(I-31
I35
tp118
sI-4
(I-31
I35
tp119
sI-3
(I-31
I35
tp120
sI-1
(I-33
I35
tp121
s.