(dp0
I0
(I-45
I27
tp1
sI1
(I-45
I27
tp2
sI2
(I-45
I27
tp3
sI3
(I-45
I26
tp4
sI4
(I-45
I26
tp5
sI5
(I-45
I26
tp6
sI6
(I-45
I27
tp7
sI7
(I-44
I27
tp8
sI8
(I-44
I27
tp9
sI9
(I-44
I26
tp10
sI10
(I-44
I26
tp11
sI11
(I-43
I26
tp12
sI12
(I-45
I26
tp13
sI13
(I-46
I25
tp14
sI14
(I-46
I25
tp15
sI15
(I-46
I25
tp16
sI16
(I-45
I25
tp17
sI17
(I-45
I24
tp18
sI18
(I-45
I23
tp19
sI19
(I-45
I22
tp20
sI20
(I-44
I22
tp21
sI21
(I-44
I21
tp22
sI22
(I-43
I19
tp23
sI23
(I-42
I19
tp24
sI24
(I-42
I19
tp25
sI25
(I-42
I18
tp26
sI26
(I-42
I18
tp27
sI27
(I-39
I16
tp28
sI28
(I-39
I16
tp29
sI29
(I-37
I14
tp30
sI30
(I-37
I14
tp31
sI31
(I-37
I13
tp32
sI32
(I-36
I12
tp33
sI33
(I-34
I11
tp34
sI34
(I-34
I10
tp35
sI35
(I-30
I9
tp36
sI36
(I-29
I9
tp37
sI37
(I-30
I9
tp38
sI38
(I-28
I7
tp39
sI39
(I-23
I7
tp40
sI40
(I-22
I6
tp41
sI41
(I-18
I6
tp42
sI42
(I-16
I4
tp43
sI43
(I-15
I3
tp44
sI44
(I-16
I0
tp45
sI45
(I-13
I0
tp46
sI46
(I-11
I-11
tp47
sI-2
(I-45
I25
tp48
sI-44
(I-4
I5
tp49
sI-43
(I-16
I6
tp50
sI-42
(I-18
I6
tp51
sI-41
(I-28
I9
tp52
sI-40
(I-28
I10
tp53
sI-39
(I-29
I13
tp54
sI-38
(I-34
I13
tp55
sI-37
(I-34
I13
tp56
sI-36
(I-37
I14
tp57
sI-35
(I-38
I14
tp58
sI-34
(I-40
I14
tp59
sI-33
(I-40
I13
tp60
sI-32
(I-40
I13
tp61
sI-31
(I-41
I13
tp62
sI-30
(I-42
I16
tp63
sI-29
(I-42
I18
tp64
sI-28
(I-43
I18
tp65
sI-27
(I-43
I18
tp66
sI-26
(I-43
I19
tp67
sI-25
(I-43
I19
tp68
sI-24
(I-44
I19
tp69
sI-23
(I-44
I20
tp70
sI-22
(I-44
I21
tp71
sI-21
(I-44
I22
tp72
sI-20
(I-44
I22
tp73
sI-19
(I-44
I22
tp74
sI-18
(I-44
I22
tp75
sI-17
(I-44
I22
tp76
sI-16
(I-44
I23
tp77
sI-15
(I-45
I23
tp78
sI-14
(I-44
I23
tp79
sI-13
(I-44
I26
tp80
sI-12
(I-44
I26
tp81
sI-11
(I-44
I26
tp82
sI-10
(I-45
I26
tp83
sI-9
(I-45
I26
tp84
sI-8
(I-45
I26
tp85
sI-7
(I-45
I24
tp86
sI-6
(I-45
I24
tp87
sI-5
(I-45
I23
tp88
sI-4
(I-45
I23
tp89
sI-3
(I-45
I25
tp90
sI-1
(I-45
I27
tp91
s.