(dp0
I0
(I-47
I46
tp1
sI1
(I-46
I47
tp2
sI2
(I-46
I47
tp3
sI3
(I-46
I47
tp4
sI4
(I-46
I47
tp5
sI5
(I-45
I47
tp6
sI6
(I-45
I47
tp7
sI7
(I-45
I47
tp8
sI8
(I-45
I46
tp9
sI9
(I-45
I46
tp10
sI10
(I-45
I46
tp11
sI11
(I-45
I46
tp12
sI12
(I-44
I46
tp13
sI13
(I-44
I46
tp14
sI14
(I-44
I46
tp15
sI15
(I-44
I46
tp16
sI16
(I-44
I45
tp17
sI17
(I-43
I45
tp18
sI18
(I-43
I45
tp19
sI19
(I-43
I45
tp20
sI20
(I-43
I45
tp21
sI21
(I-42
I44
tp22
sI22
(I-42
I44
tp23
sI23
(I-41
I43
tp24
sI24
(I-41
I43
tp25
sI25
(I-41
I43
tp26
sI26
(I-41
I43
tp27
sI27
(I-40
I43
tp28
sI28
(I-40
I41
tp29
sI29
(I-40
I41
tp30
sI30
(I-40
I41
tp31
sI31
(I-40
I41
tp32
sI32
(I-40
I41
tp33
sI33
(I-40
I39
tp34
sI34
(I-39
I37
tp35
sI35
(I-40
I36
tp36
sI36
(I-40
I36
tp37
sI37
(I-38
I36
tp38
sI38
(I-38
I36
tp39
sI39
(I-38
I34
tp40
sI40
(I-38
I34
tp41
sI41
(I-37
I33
tp42
sI42
(I-36
I32
tp43
sI43
(I-36
I32
tp44
sI44
(I-35
I31
tp45
sI45
(I-35
I31
tp46
sI46
(I-34
I30
tp47
sI47
(I-33
I30
tp48
sI48
(I-33
I30
tp49
sI49
(I-33
I30
tp50
sI50
(I-32
I27
tp51
sI51
(I-31
I27
tp52
sI52
(I-29
I27
tp53
sI53
(I-28
I26
tp54
sI54
(I-30
I25
tp55
sI55
(I-29
I24
tp56
sI56
(I-29
I22
tp57
sI57
(I-27
I22
tp58
sI58
(I-26
I21
tp59
sI59
(I-24
I20
tp60
sI60
(I-24
I19
tp61
sI61
(I-23
I18
tp62
sI62
(I-23
I17
tp63
sI63
(I-20
I11
tp64
sI64
(I-18
I9
tp65
sI65
(I-15
I9
tp66
sI66
(I-13
I7
tp67
sI67
(I-10
I6
tp68
sI-2
(I-47
I47
tp69
sI-59
(I-11
I7
tp70
sI-58
(I-12
I8
tp71
sI-57
(I-17
I9
tp72
sI-56
(I-17
I10
tp73
sI-55
(I-23
I11
tp74
sI-54
(I-24
I15
tp75
sI-53
(I-25
I16
tp76
sI-52
(I-26
I18
tp77
sI-51
(I-29
I20
tp78
sI-50
(I-32
I20
tp79
sI-49
(I-32
I21
tp80
sI-48
(I-34
I22
tp81
sI-47
(I-34
I23
tp82
sI-46
(I-34
I24
tp83
sI-45
(I-35
I25
tp84
sI-44
(I-35
I26
tp85
sI-43
(I-35
I27
tp86
sI-42
(I-35
I27
tp87
sI-41
(I-38
I28
tp88
sI-40
(I-38
I28
tp89
sI-39
(I-38
I29
tp90
sI-38
(I-38
I29
tp91
sI-37
(I-39
I29
tp92
sI-36
(I-39
I31
tp93
sI-35
(I-40
I31
tp94
sI-34
(I-40
I31
tp95
sI-33
(I-42
I31
tp96
sI-32
(I-42
I31
tp97
sI-31
(I-43
I30
tp98
sI-30
(I-44
I32
tp99
sI-29
(I-44
I33
tp100
sI-28
(I-46
I34
tp101
sI-27
(I-46
I34
tp102
sI-26
(I-46
I37
tp103
sI-25
(I-47
I38
tp104
sI-24
(I-47
I39
tp105
sI-23
(I-47
I40
tp106
sI-22
(I-47
I40
tp107
sI-21
(I-47
I40
tp108
sI-20
(I-47
I41
tp109
sI-19
(I-47
I42
tp110
sI-18
(I-48
I43
tp111
sI-17
(I-48
I43
tp112
sI-16
(I-48
I43
tp113
sI-15
(I-48
I43
tp114
sI-14
(I-48
I44
tp115
sI-13
(I-48
I45
tp116
sI-12
(I-48
I45
tp117
sI-11
(I-48
I45
tp118
sI-10
(I-48
I47
tp119
sI-9
(I-48
I47
tp120
sI-8
(I-48
I48
tp121
sI-7
(I-48
I48
tp122
sI-6
(I-47
I48
tp123
sI-5
(I-47
I48
tp124
sI-4
(I-47
I47
tp125
sI-3
(I-47
I47
tp126
sI-1
(I-47
I47
tp127
s.