(dp0
I1
NsI2
F5.783212900161743
sI3
F4.999836206436157
sI4
NsI5
NsI6
F5.232511043548584
sI7
F5.699259042739868
sI8
F4.632507085800171
sI9
F5.316056966781616
sI10
NsI11
F5.282992124557495
sI12
NsI13
F4.532925128936768
sI14
F4.808701038360596
sI15
NsI16
F4.6987810134887695
sI17
NsI18
F4.6331751346588135
sI19
F4.282765865325928
sI20
F5.365703105926514
sI21
F4.549098968505859
sI22
F5.382683038711548
sI23
NsI24
F4.71646785736084
sI25
F5.049751043319702
sI26
F5.733282089233398
sI27
F4.70720911026001
sI28
F5.14953088760376
sI29
F4.915827989578247
sI30
F6.049107074737549
s.